target datalayout = "e-m:e-p270:32:32-p271:32:32-p272:64:64-i64:64-i128:128-f80:128-n8:16:32:64-S128"
target triple = "x86_64-pc-linux-gnu"

%struct._VAConfigAttrib = type { i32, i32 }
%struct.AVCodecContext = type { ptr, i32, i32, ptr, i32, i32, ptr, ptr, ptr, i64, i32, i32, ptr, i32, %struct.AVRational, %struct.AVRational, %struct.AVRational, i32, i32, i32, i32, i32, %struct.AVRational, i32, i32, i32, i32, i32, i32, i32, i32, i32, i32, i32, ptr, ptr, i32, float, float, float, float, float, float, float, float, float, i32, i32, i32, i32, i32, i32, i32, i32, i32, i32, i32, i32, ptr, ptr, ptr, i32, i32, i32, i32, i32, i32, i32, i32, i32, i32, %struct.AVChannelLayout, i32, i32, i32, i32, i32, i32, i32, i32, ptr, i32, i32, i32, float, float, i32, i32, i32, i32, i32, ptr, i64, i64, float, float, i32, i32, ptr, ptr, i32, i32, i32, i32, i32, ptr, ptr, ptr, ptr, i32, i32, [8 x i64], i32, i32, i32, i32, i32, i32, i32, ptr, ptr, i32, i32, i32, i32, i32, i32, i32, i32, i32, i32, ptr, ptr, i32, i32, ptr, ptr, ptr, ptr, i32, i32, i64, i32, i32, i64, ptr, i64, ptr, i32, ptr, i32 }
%struct.AVRational = type { i32, i32 }
%struct.AVChannelLayout = type { i32, i32, %union.anon, ptr }
%union.anon = type { i64 }
%struct.VAAPIEncodeContext = type { %struct.FFHWBaseEncodeContext, ptr, i32, i32, i32, i32, i32, i32, ptr, ptr, i32, i32, i32, i32, i32, i32, [4 x %struct._VAConfigAttrib], i32, i32, i32, ptr, ptr, [4 x i32], [4 x ptr], [4 x i64], i32, %struct._VAEncMiscParameterRateControl, %struct._VAEncMiscParameterHRD, %struct._VAEncMiscParameterFrameRate, %struct._VAEncMiscParameterBufferMaxFrameSize, %struct._VAEncMiscParameterBufferQualityLevel, ptr, ptr, i32, i32, i32, i32, i32, i32, [20 x i32], [22 x i32], [21 x i32], [23 x i32], i32, i32, ptr, i32, i32 }
%struct.FFHWBaseEncodeContext = type { ptr, ptr, ptr, i32, i32, i32, i32, i32, i32, ptr, ptr, ptr, ptr, ptr, ptr, ptr, ptr, [2 x ptr], i32, i64, i64, i64, i64, i64, i64, i64, [112 x i64], i32, i32, i32, i32, i32, i32, i32, i32, i32, i32, i32, i32, i32, i32, i32, i32, ptr, i32, ptr, i32, ptr }
%struct._VAEncMiscParameterRateControl = type { i32, i32, i32, i32, i32, i32, %union.anon.0, i32, i32, i32, i32, [4 x i32] }
%union.anon.0 = type { %struct.anon }
%struct.anon = type { i32 }
%struct._VAEncMiscParameterHRD = type { i32, i32, [4 x i32] }
%struct._VAEncMiscParameterFrameRate = type { i32, %union.anon.1, [4 x i32] }
%union.anon.1 = type { %struct.anon.2 }
%struct.anon.2 = type { i32 }
%struct._VAEncMiscParameterBufferMaxFrameSize = type { i32, i32, [4 x i32] }
%struct._VAEncMiscParameterBufferQualityLevel = type { i32, [4 x i32] }
%struct.AVHWFramesContext = type { ptr, ptr, ptr, ptr, ptr, ptr, ptr, i32, i32, i32, i32, i32 }
%struct.AVVAAPIHWConfig = type { i32 }
%struct.AVBufferRef = type { ptr, ptr, i64 }

@.str.160 = private unnamed_addr constant [55 x i8] c"Failed to initialise reconstructed frame context: %d.\0A\00", align 1

; Function Attrs: cold nounwind optsize uwtable
define internal i32 @vaapi_encode_create_recon_frames(ptr noundef %0) #2 {
  %2 = alloca ptr, align 8
  %3 = alloca ptr, align 8
  %4 = alloca ptr, align 8
  %5 = alloca ptr, align 8
  %6 = alloca i32, align 4
  %7 = alloca i32, align 4
  store ptr %0, ptr %2, align 8, !tbaa !4
  call void @llvm.lifetime.start.p0(i64 8, ptr %3) #10
  %8 = load ptr, ptr %2, align 8, !tbaa !4
  %9 = getelementptr inbounds nuw %struct.AVCodecContext, ptr %8, i32 0, i32 6
  %10 = load ptr, ptr %9, align 8, !tbaa !11
  store ptr %10, ptr %3, align 8, !tbaa !31
  call void @llvm.lifetime.start.p0(i64 8, ptr %4) #10
  %11 = load ptr, ptr %2, align 8, !tbaa !4
  %12 = getelementptr inbounds nuw %struct.AVCodecContext, ptr %11, i32 0, i32 6
  %13 = load ptr, ptr %12, align 8, !tbaa !11
  store ptr %13, ptr %4, align 8, !tbaa !33
  call void @llvm.lifetime.start.p0(i64 8, ptr %5) #10
  store ptr null, ptr %5, align 8, !tbaa !214
  call void @llvm.lifetime.start.p0(i64 4, ptr %6) #10
  call void @llvm.lifetime.start.p0(i64 4, ptr %7) #10
  %14 = load ptr, ptr %3, align 8, !tbaa !31
  %15 = getelementptr inbounds nuw %struct.FFHWBaseEncodeContext, ptr %14, i32 0, i32 9
  %16 = load ptr, ptr %15, align 8, !tbaa !216
  %17 = call ptr @av_hwdevice_hwconfig_alloc(ptr noundef %16)
  store ptr %17, ptr %5, align 8, !tbaa !214
  %18 = load ptr, ptr %5, align 8, !tbaa !214
  %19 = icmp ne ptr %18, null
  br i1 %19, label %21, label %20

20:                                               ; preds = %1
  store i32 -12, ptr %7, align 4, !tbaa !37
  br label %86

21:                                               ; preds = %1
  %22 = load ptr, ptr %4, align 8, !tbaa !33
  %23 = getelementptr inbounds nuw %struct.VAAPIEncodeContext, ptr %22, i32 0, i32 18
  %24 = load i32, ptr %23, align 4, !tbaa !38
  %25 = load ptr, ptr %5, align 8, !tbaa !214
  %26 = getelementptr inbounds nuw %struct.AVVAAPIHWConfig, ptr %25, i32 0, i32 0
  store i32 %24, ptr %26, align 4, !tbaa !217
  %27 = load ptr, ptr %3, align 8, !tbaa !31
  %28 = load ptr, ptr %5, align 8, !tbaa !214
  %29 = call i32 @ff_hw_base_get_recon_format(ptr noundef %27, ptr noundef %28, ptr noundef %6)
  store i32 %29, ptr %7, align 4, !tbaa !37
  %30 = load i32, ptr %7, align 4, !tbaa !37
  %31 = icmp slt i32 %30, 0
  br i1 %31, label %32, label %33

32:                                               ; preds = %21
  br label %86

33:                                               ; preds = %21
  %34 = load ptr, ptr %3, align 8, !tbaa !31
  %35 = getelementptr inbounds nuw %struct.FFHWBaseEncodeContext, ptr %34, i32 0, i32 9
  %36 = load ptr, ptr %35, align 8, !tbaa !216
  %37 = call ptr @av_hwframe_ctx_alloc(ptr noundef %36)
  %38 = load ptr, ptr %3, align 8, !tbaa !31
  %39 = getelementptr inbounds nuw %struct.FFHWBaseEncodeContext, ptr %38, i32 0, i32 13
  store ptr %37, ptr %39, align 8, !tbaa !219
  %40 = load ptr, ptr %3, align 8, !tbaa !31
  %41 = getelementptr inbounds nuw %struct.FFHWBaseEncodeContext, ptr %40, i32 0, i32 13
  %42 = load ptr, ptr %41, align 8, !tbaa !219
  %43 = icmp ne ptr %42, null
  br i1 %43, label %45, label %44

44:                                               ; preds = %33
  store i32 -12, ptr %7, align 4, !tbaa !37
  br label %86

45:                                               ; preds = %33
  %46 = load ptr, ptr %3, align 8, !tbaa !31
  %47 = getelementptr inbounds nuw %struct.FFHWBaseEncodeContext, ptr %46, i32 0, i32 13
  %48 = load ptr, ptr %47, align 8, !tbaa !219
  %49 = getelementptr inbounds nuw %struct.AVBufferRef, ptr %48, i32 0, i32 1
  %50 = load ptr, ptr %49, align 8, !tbaa !220
  %51 = load ptr, ptr %3, align 8, !tbaa !31
  %52 = getelementptr inbounds nuw %struct.FFHWBaseEncodeContext, ptr %51, i32 0, i32 14
  store ptr %50, ptr %52, align 8, !tbaa !80
  %53 = load ptr, ptr %3, align 8, !tbaa !31
  %54 = getelementptr inbounds nuw %struct.FFHWBaseEncodeContext, ptr %53, i32 0, i32 14
  %55 = load ptr, ptr %54, align 8, !tbaa !80
  %56 = getelementptr inbounds nuw %struct.AVHWFramesContext, ptr %55, i32 0, i32 8
  store i32 44, ptr %56, align 4, !tbaa !223
  %57 = load i32, ptr %6, align 4, !tbaa !37
  %58 = load ptr, ptr %3, align 8, !tbaa !31
  %59 = getelementptr inbounds nuw %struct.FFHWBaseEncodeContext, ptr %58, i32 0, i32 14
  %60 = load ptr, ptr %59, align 8, !tbaa !80
  %61 = getelementptr inbounds nuw %struct.AVHWFramesContext, ptr %60, i32 0, i32 9
  store i32 %57, ptr %61, align 8, !tbaa !111
  %62 = load ptr, ptr %3, align 8, !tbaa !31
  %63 = getelementptr inbounds nuw %struct.FFHWBaseEncodeContext, ptr %62, i32 0, i32 5
  %64 = load i32, ptr %63, align 8, !tbaa !67
  %65 = load ptr, ptr %3, align 8, !tbaa !31
  %66 = getelementptr inbounds nuw %struct.FFHWBaseEncodeContext, ptr %65, i32 0, i32 14
  %67 = load ptr, ptr %66, align 8, !tbaa !80
  %68 = getelementptr inbounds nuw %struct.AVHWFramesContext, ptr %67, i32 0, i32 10
  store i32 %64, ptr %68, align 4, !tbaa !224
  %69 = load ptr, ptr %3, align 8, !tbaa !31
  %70 = getelementptr inbounds nuw %struct.FFHWBaseEncodeContext, ptr %69, i32 0, i32 6
  %71 = load i32, ptr %70, align 4, !tbaa !69
  %72 = load ptr, ptr %3, align 8, !tbaa !31
  %73 = getelementptr inbounds nuw %struct.FFHWBaseEncodeContext, ptr %72, i32 0, i32 14
  %74 = load ptr, ptr %73, align 8, !tbaa !80
  %75 = getelementptr inbounds nuw %struct.AVHWFramesContext, ptr %74, i32 0, i32 11
  store i32 %71, ptr %75, align 8, !tbaa !225
  %76 = load ptr, ptr %3, align 8, !tbaa !31
  %77 = getelementptr inbounds nuw %struct.FFHWBaseEncodeContext, ptr %76, i32 0, i32 13
  %78 = load ptr, ptr %77, align 8, !tbaa !219
  %79 = call i32 @av_hwframe_ctx_init(ptr noundef %78)
  store i32 %79, ptr %7, align 4, !tbaa !37
  %80 = load i32, ptr %7, align 4, !tbaa !37
  %81 = icmp slt i32 %80, 0
  br i1 %81, label %82, label %85

82:                                               ; preds = %45
  %83 = load ptr, ptr %2, align 8, !tbaa !4
  %84 = load i32, ptr %7, align 4, !tbaa !37
  call void (ptr, i32, ptr, ...) @av_log(ptr noundef %83, i32 noundef 16, ptr noundef @.str.160, i32 noundef %84)
  br label %86

85:                                               ; preds = %45
  store i32 0, ptr %7, align 4, !tbaa !37
  br label %86

86:                                               ; preds = %85, %82, %44, %32, %20
  call void @av_freep(ptr noundef %5)
  %87 = load i32, ptr %7, align 4, !tbaa !37
  call void @llvm.lifetime.end.p0(i64 4, ptr %7) #10
  call void @llvm.lifetime.end.p0(i64 4, ptr %6) #10
  call void @llvm.lifetime.end.p0(i64 8, ptr %5) #10
  call void @llvm.lifetime.end.p0(i64 8, ptr %4) #10
  call void @llvm.lifetime.end.p0(i64 8, ptr %3) #10
  ret i32 %87
}