; Function Attrs: cold nounwind optsize uwtable
define internal fastcc range(i32 -2147483648, 1) i32 @vaapi_encode_create_recon_frames(ptr noundef %0) unnamed_addr #2 {
  %2 = alloca ptr, align 8
  %3 = alloca i32, align 4
  %4 = getelementptr inbounds nuw i8, ptr %0, i64 32
  %5 = load ptr, ptr %4, align 8, !tbaa !4
  call void @llvm.lifetime.start.p0(i64 8, ptr nonnull %2) #9
  call void @llvm.lifetime.start.p0(i64 4, ptr nonnull %3) #9
  %6 = getelementptr inbounds nuw i8, ptr %5, i64 48
  %7 = load ptr, ptr %6, align 8, !tbaa !177
  %8 = tail call ptr @av_hwdevice_hwconfig_alloc(ptr noundef %7) #9
  store ptr %8, ptr %2, align 8, !tbaa !178
  %.not = icmp eq ptr %8, null
  br i1 %.not, label %34, label %9

9:                                                ; preds = %1
  %10 = getelementptr inbounds nuw i8, ptr %5, i64 1300
  %11 = load i32, ptr %10, align 4, !tbaa !27
  store i32 %11, ptr %8, align 4, !tbaa !180
  %12 = call i32 @ff_hw_base_get_recon_format(ptr noundef nonnull %5, ptr noundef nonnull %8, ptr noundef nonnull %3) #9
  %13 = icmp slt i32 %12, 0
  br i1 %13, label %34, label %14

14:                                               ; preds = %9
  %15 = load ptr, ptr %6, align 8, !tbaa !177
  %16 = call ptr @av_hwframe_ctx_alloc(ptr noundef %15) #9
  %17 = getelementptr inbounds nuw i8, ptr %5, i64 80
  store ptr %16, ptr %17, align 8, !tbaa !182
  %.not25 = icmp eq ptr %16, null
  br i1 %.not25, label %34, label %18

18:                                               ; preds = %14
  %19 = getelementptr inbounds nuw i8, ptr %16, i64 8
  %20 = load ptr, ptr %19, align 8, !tbaa !183
  %21 = getelementptr inbounds nuw i8, ptr %5, i64 88
  store ptr %20, ptr %21, align 8, !tbaa !70
  %22 = getelementptr inbounds nuw i8, ptr %20, i64 60
  store i32 44, ptr %22, align 4, !tbaa !186
  %23 = load i32, ptr %3, align 4, !tbaa !109
  %24 = getelementptr inbounds nuw i8, ptr %20, i64 64
  store i32 %23, ptr %24, align 8, !tbaa !101
  %25 = getelementptr inbounds nuw i8, ptr %5, i64 32
  %26 = load i32, ptr %25, align 8, !tbaa !57
  %27 = getelementptr inbounds nuw i8, ptr %20, i64 68
  store i32 %26, ptr %27, align 4, !tbaa !187
  %28 = getelementptr inbounds nuw i8, ptr %5, i64 36
  %29 = load i32, ptr %28, align 4, !tbaa !59
  %30 = getelementptr inbounds nuw i8, ptr %20, i64 72
  store i32 %29, ptr %30, align 8, !tbaa !188
  %31 = call i32 @av_hwframe_ctx_init(ptr noundef nonnull %16) #9
  %32 = icmp slt i32 %31, 0
  br i1 %32, label %33, label %34

33:                                               ; preds = %18
  call void (ptr, i32, ptr, ...) @av_log(ptr noundef nonnull %0, i32 noundef 16, ptr noundef nonnull @.str.160, i32 noundef %31) #9
  br label %34

34:                                               ; preds = %18, %14, %1, %9, %33
  %.0 = phi i32 [ %12, %9 ], [ %31, %33 ], [ -12, %1 ], [ -12, %14 ], [ 0, %18 ]
  call void @av_freep(ptr noundef nonnull %2) #9
  call void @llvm.lifetime.end.p0(i64 4, ptr nonnull %3) #9
  call void @llvm.lifetime.end.p0(i64 8, ptr nonnull %2) #9
  ret i32 %.0
}